#include <math.h>
#include <stdio.h>
#include <stdlib.h>
#include <string.h>

int main()
{
   int m,a,b,i;
   scanf("%d",&m);
   for(a=2;a<=(m/2);a++)
   {
       b=m-a;
       for(i=2;i<a;i++)
       {if(a%i!=0)
       continue;
       else
       goto a;}
       for(i=2;i<b;i++)
       {
           if(b%i!=0)
           continue;
           else
           goto a;
       }
    printf("%d %d\n",a,b);
    a:continue;
   }
   return 0;
}
